target datalayout = "e-m:e-p270:32:32-p271:32:32-p272:64:64-i64:64-i128:128-f80:128-n8:16:32:64-S128"
target triple = "x86_64-unknown-linux-gnu"

%"class.absl::lts_20230802::Span" = type { ptr, i64 }
%"class.absl::lts_20230802::Span.10" = type { ptr, i64 }
%struct.gsec_aes_gcm_aead_crypter = type { %struct.gsec_aead_crypter, i64, i64, ptr, ptr }
%struct.gsec_aead_crypter = type { ptr }

@.str.21 = private unnamed_addr constant [35 x i8] c"Rekeying failed in key derivation.\00", align 1
@.str.22 = private unnamed_addr constant [35 x i8] c"Rekeying failed in context update.\00", align 1

; Function Attrs: mustprogress nounwind uwtable
define linkonce_odr noundef ptr @_ZN4absl12lts_2023080213span_internal11GetDataImplIKNS0_4SpanIhEEEEDTcldtfp_4dataEERT_c(ptr noundef nonnull align 8 dereferenceable(16) %c, i8 noundef signext %0) #1 comdat {
entry:
  %c.addr = alloca ptr, align 8
  %.addr = alloca i8, align 1
  store ptr %c, ptr %c.addr, align 8
  store i8 %0, ptr %.addr, align 1
  %1 = load ptr, ptr %c.addr, align 8
  %call = call noundef ptr @_ZNK4absl12lts_202308024SpanIhE4dataEv(ptr noundef nonnull align 8 dereferenceable(16) %1) #12
  ret ptr %call
}

; Function Attrs: mustprogress nounwind uwtable
define linkonce_odr void @_ZN4absl12lts_202308024SpanIKhEC2EPS2_m(ptr noundef nonnull align 8 dereferenceable(16) %this, ptr noundef %array, i64 noundef %length) unnamed_addr #1 comdat align 2 {
entry:
  %this.addr = alloca ptr, align 8
  %array.addr = alloca ptr, align 8
  %length.addr = alloca i64, align 8
  store ptr %this, ptr %this.addr, align 8
  store ptr %array, ptr %array.addr, align 8
  store i64 %length, ptr %length.addr, align 8
  %this1 = load ptr, ptr %this.addr, align 8
  %ptr_ = getelementptr inbounds %"class.absl::lts_20230802::Span", ptr %this1, i32 0, i32 0
  %0 = load ptr, ptr %array.addr, align 8
  store ptr %0, ptr %ptr_, align 8
  %len_ = getelementptr inbounds %"class.absl::lts_20230802::Span", ptr %this1, i32 0, i32 1
  %1 = load i64, ptr %length.addr, align 8
  store i64 %1, ptr %len_, align 8
  ret void
}

; Function Attrs: mustprogress nounwind uwtable
define linkonce_odr noundef ptr @_ZN4absl12lts_2023080213span_internal7GetDataIKNS0_4SpanIhEEEEDTcl11GetDataImplfp_Li0EEERT_(ptr noundef nonnull align 8 dereferenceable(16) %c) #1 comdat {
entry:
  %c.addr = alloca ptr, align 8
  store ptr %c, ptr %c.addr, align 8
  %0 = load ptr, ptr %c.addr, align 8
  %call = call noundef ptr @_ZN4absl12lts_2023080213span_internal11GetDataImplIKNS0_4SpanIhEEEEDTcldtfp_4dataEERT_c(ptr noundef nonnull align 8 dereferenceable(16) %0, i8 noundef signext 0) #12
  ret ptr %call
}

; Function Attrs: mustprogress nounwind uwtable
define linkonce_odr void @_ZN4absl12lts_202308024SpanIKhEC2INS1_IhEEvS5_TnNSt9enable_ifIXsr6IsViewIT_EE5valueEiE4typeELi0EEERKS7_(ptr noundef nonnull align 8 dereferenceable(16) %this, ptr noundef nonnull align 8 dereferenceable(16) %v) unnamed_addr #1 comdat align 2 {
entry:
  %this.addr = alloca ptr, align 8
  %v.addr = alloca ptr, align 8
  store ptr %this, ptr %this.addr, align 8
  store ptr %v, ptr %v.addr, align 8
  %this1 = load ptr, ptr %this.addr, align 8
  %0 = load ptr, ptr %v.addr, align 8
  %call = call noundef ptr @_ZN4absl12lts_2023080213span_internal7GetDataIKNS0_4SpanIhEEEEDTcl11GetDataImplfp_Li0EEERT_(ptr noundef nonnull align 8 dereferenceable(16) %0) #12
  %1 = load ptr, ptr %v.addr, align 8
  %call2 = call noundef i64 @_ZNK4absl12lts_202308024SpanIhE4sizeEv(ptr noundef nonnull align 8 dereferenceable(16) %1) #12
  call void @_ZN4absl12lts_202308024SpanIKhEC2EPS2_m(ptr noundef nonnull align 8 dereferenceable(16) %this1, ptr noundef %call, i64 noundef %call2) #12
  ret void
}

; Function Attrs: mustprogress nounwind uwtable
define linkonce_odr noundef i64 @_ZNK4absl12lts_202308024SpanIhE4sizeEv(ptr noundef nonnull align 8 dereferenceable(16) %this) #1 comdat align 2 {
entry:
  %this.addr = alloca ptr, align 8
  store ptr %this, ptr %this.addr, align 8
  %this1 = load ptr, ptr %this.addr, align 8
  %len_ = getelementptr inbounds %"class.absl::lts_20230802::Span.10", ptr %this1, i32 0, i32 1
  %0 = load i64, ptr %len_, align 8
  ret i64 %0
}

; Function Attrs: mustprogress nounwind uwtable
define linkonce_odr noundef ptr @_ZNK4absl12lts_202308024SpanIhE4dataEv(ptr noundef nonnull align 8 dereferenceable(16) %this) #1 comdat align 2 {
entry:
  %this.addr = alloca ptr, align 8
  store ptr %this, ptr %this.addr, align 8
  %this1 = load ptr, ptr %this.addr, align 8
  %ptr_ = getelementptr inbounds %"class.absl::lts_20230802::Span.10", ptr %this1, i32 0, i32 0
  %0 = load ptr, ptr %ptr_, align 8
  ret ptr %0
}

; Function Attrs: mustprogress uwtable
define internal noundef i32 @_ZL25aes_gcm_rekey_if_requiredP25gsec_aes_gcm_aead_crypterPKhPPc(ptr noundef %aes_gcm_crypter, ptr noundef %nonce, ptr noundef %error_details) #0 {
entry:
  %retval = alloca i32, align 4
  %aes_gcm_crypter.addr = alloca ptr, align 8
  %nonce.addr = alloca ptr, align 8
  %error_details.addr = alloca ptr, align 8
  %ref.tmp = alloca %"class.absl::lts_20230802::Span.10", align 8
  %ref.tmp6 = alloca %"class.absl::lts_20230802::Span.10", align 8
  %ref.tmp13 = alloca %"class.absl::lts_20230802::Span.10", align 8
  %ref.tmp20 = alloca %"class.absl::lts_20230802::Span.10", align 8
  %agg.tmp = alloca %"class.absl::lts_20230802::Span.10", align 8
  %ref.tmp30 = alloca %"class.absl::lts_20230802::Span.10", align 8
  %agg.tmp36 = alloca %"class.absl::lts_20230802::Span", align 8
  %agg.tmp41 = alloca %"class.absl::lts_20230802::Span", align 8
  %ref.tmp42 = alloca %"class.absl::lts_20230802::Span.10", align 8
  %ref.tmp51 = alloca %"class.absl::lts_20230802::Span.10", align 8
  store ptr %aes_gcm_crypter, ptr %aes_gcm_crypter.addr, align 8
  store ptr %nonce, ptr %nonce.addr, align 8
  store ptr %error_details, ptr %error_details.addr, align 8
  %0 = load ptr, ptr %aes_gcm_crypter.addr, align 8
  %gsec_key = getelementptr inbounds %struct.gsec_aes_gcm_aead_crypter, ptr %0, i32 0, i32 4
  %1 = load ptr, ptr %gsec_key, align 8
  %vtable = load ptr, ptr %1, align 8
  %vfn = getelementptr inbounds ptr, ptr %vtable, i64 2
  %2 = load ptr, ptr %vfn, align 8
  %call = call noundef zeroext i1 %2(ptr noundef nonnull align 8 dereferenceable(8) %1)
  br i1 %call, label %lor.rhs, label %lor.end

lor.rhs:                                          ; preds = %entry
  %3 = load ptr, ptr %aes_gcm_crypter.addr, align 8
  %gsec_key1 = getelementptr inbounds %struct.gsec_aes_gcm_aead_crypter, ptr %3, i32 0, i32 4
  %4 = load ptr, ptr %gsec_key1, align 8
  %vtable2 = load ptr, ptr %4, align 8
  %vfn3 = getelementptr inbounds ptr, ptr %vtable2, i64 6
  %5 = load ptr, ptr %vfn3, align 8
  %call4 = call { ptr, i64 } %5(ptr noundef nonnull align 8 dereferenceable(8) %4)
  %6 = getelementptr inbounds { ptr, i64 }, ptr %ref.tmp, i32 0, i32 0
  %7 = extractvalue { ptr, i64 } %call4, 0
  store ptr %7, ptr %6, align 8
  %8 = getelementptr inbounds { ptr, i64 }, ptr %ref.tmp, i32 0, i32 1
  %9 = extractvalue { ptr, i64 } %call4, 1
  store i64 %9, ptr %8, align 8
  %call5 = call noundef ptr @_ZNK4absl12lts_202308024SpanIhE4dataEv(ptr noundef nonnull align 8 dereferenceable(16) %ref.tmp) #12
  %10 = load ptr, ptr %nonce.addr, align 8
  %add.ptr = getelementptr inbounds i8, ptr %10, i64 2
  %11 = load ptr, ptr %aes_gcm_crypter.addr, align 8
  %gsec_key7 = getelementptr inbounds %struct.gsec_aes_gcm_aead_crypter, ptr %11, i32 0, i32 4
  %12 = load ptr, ptr %gsec_key7, align 8
  %vtable8 = load ptr, ptr %12, align 8
  %vfn9 = getelementptr inbounds ptr, ptr %vtable8, i64 6
  %13 = load ptr, ptr %vfn9, align 8
  %call10 = call { ptr, i64 } %13(ptr noundef nonnull align 8 dereferenceable(8) %12)
  %14 = getelementptr inbounds { ptr, i64 }, ptr %ref.tmp6, i32 0, i32 0
  %15 = extractvalue { ptr, i64 } %call10, 0
  store ptr %15, ptr %14, align 8
  %16 = getelementptr inbounds { ptr, i64 }, ptr %ref.tmp6, i32 0, i32 1
  %17 = extractvalue { ptr, i64 } %call10, 1
  store i64 %17, ptr %16, align 8
  %call11 = call noundef i64 @_ZNK4absl12lts_202308024SpanIhE4sizeEv(ptr noundef nonnull align 8 dereferenceable(16) %ref.tmp6) #12
  %call12 = call i32 @memcmp(ptr noundef %call5, ptr noundef %add.ptr, i64 noundef %call11) #16
  %cmp = icmp eq i32 %call12, 0
  br label %lor.end

lor.end:                                          ; preds = %lor.rhs, %entry
  %18 = phi i1 [ true, %entry ], [ %cmp, %lor.rhs ]
  br i1 %18, label %if.then, label %if.end

if.then:                                          ; preds = %lor.end
  store i32 0, ptr %retval, align 4
  br label %return

if.end:                                           ; preds = %lor.end
  %19 = load ptr, ptr %aes_gcm_crypter.addr, align 8
  %gsec_key14 = getelementptr inbounds %struct.gsec_aes_gcm_aead_crypter, ptr %19, i32 0, i32 4
  %20 = load ptr, ptr %gsec_key14, align 8
  %vtable15 = load ptr, ptr %20, align 8
  %vfn16 = getelementptr inbounds ptr, ptr %vtable15, i64 6
  %21 = load ptr, ptr %vfn16, align 8
  %call17 = call { ptr, i64 } %21(ptr noundef nonnull align 8 dereferenceable(8) %20)
  %22 = getelementptr inbounds { ptr, i64 }, ptr %ref.tmp13, i32 0, i32 0
  %23 = extractvalue { ptr, i64 } %call17, 0
  store ptr %23, ptr %22, align 8
  %24 = getelementptr inbounds { ptr, i64 }, ptr %ref.tmp13, i32 0, i32 1
  %25 = extractvalue { ptr, i64 } %call17, 1
  store i64 %25, ptr %24, align 8
  %call18 = call noundef ptr @_ZNK4absl12lts_202308024SpanIhE4dataEv(ptr noundef nonnull align 8 dereferenceable(16) %ref.tmp13) #12
  %26 = load ptr, ptr %nonce.addr, align 8
  %add.ptr19 = getelementptr inbounds i8, ptr %26, i64 2
  %27 = load ptr, ptr %aes_gcm_crypter.addr, align 8
  %gsec_key21 = getelementptr inbounds %struct.gsec_aes_gcm_aead_crypter, ptr %27, i32 0, i32 4
  %28 = load ptr, ptr %gsec_key21, align 8
  %vtable22 = load ptr, ptr %28, align 8
  %vfn23 = getelementptr inbounds ptr, ptr %vtable22, i64 6
  %29 = load ptr, ptr %vfn23, align 8
  %call24 = call { ptr, i64 } %29(ptr noundef nonnull align 8 dereferenceable(8) %28)
  %30 = getelementptr inbounds { ptr, i64 }, ptr %ref.tmp20, i32 0, i32 0
  %31 = extractvalue { ptr, i64 } %call24, 0
  store ptr %31, ptr %30, align 8
  %32 = getelementptr inbounds { ptr, i64 }, ptr %ref.tmp20, i32 0, i32 1
  %33 = extractvalue { ptr, i64 } %call24, 1
  store i64 %33, ptr %32, align 8
  %call25 = call noundef i64 @_ZNK4absl12lts_202308024SpanIhE4sizeEv(ptr noundef nonnull align 8 dereferenceable(16) %ref.tmp20) #12
  call void @llvm.memcpy.p0.p0.i64(ptr align 1 %call18, ptr align 1 %add.ptr19, i64 %call25, i1 false)
  %34 = load ptr, ptr %aes_gcm_crypter.addr, align 8
  %gsec_key26 = getelementptr inbounds %struct.gsec_aes_gcm_aead_crypter, ptr %34, i32 0, i32 4
  %35 = load ptr, ptr %gsec_key26, align 8
  %vtable27 = load ptr, ptr %35, align 8
  %vfn28 = getelementptr inbounds ptr, ptr %vtable27, i64 4
  %36 = load ptr, ptr %vfn28, align 8
  %call29 = call { ptr, i64 } %36(ptr noundef nonnull align 8 dereferenceable(8) %35)
  %37 = getelementptr inbounds { ptr, i64 }, ptr %agg.tmp, i32 0, i32 0
  %38 = extractvalue { ptr, i64 } %call29, 0
  store ptr %38, ptr %37, align 8
  %39 = getelementptr inbounds { ptr, i64 }, ptr %agg.tmp, i32 0, i32 1
  %40 = extractvalue { ptr, i64 } %call29, 1
  store i64 %40, ptr %39, align 8
  %41 = load ptr, ptr %aes_gcm_crypter.addr, align 8
  %gsec_key31 = getelementptr inbounds %struct.gsec_aes_gcm_aead_crypter, ptr %41, i32 0, i32 4
  %42 = load ptr, ptr %gsec_key31, align 8
  %vtable32 = load ptr, ptr %42, align 8
  %vfn33 = getelementptr inbounds ptr, ptr %vtable32, i64 7
  %43 = load ptr, ptr %vfn33, align 8
  %call34 = call { ptr, i64 } %43(ptr noundef nonnull align 8 dereferenceable(8) %42)
  %44 = getelementptr inbounds { ptr, i64 }, ptr %ref.tmp30, i32 0, i32 0
  %45 = extractvalue { ptr, i64 } %call34, 0
  store ptr %45, ptr %44, align 8
  %46 = getelementptr inbounds { ptr, i64 }, ptr %ref.tmp30, i32 0, i32 1
  %47 = extractvalue { ptr, i64 } %call34, 1
  store i64 %47, ptr %46, align 8
  %call35 = call noundef ptr @_ZNK4absl12lts_202308024SpanIhE4dataEv(ptr noundef nonnull align 8 dereferenceable(16) %ref.tmp30) #12
  %48 = load ptr, ptr %aes_gcm_crypter.addr, align 8
  %gsec_key37 = getelementptr inbounds %struct.gsec_aes_gcm_aead_crypter, ptr %48, i32 0, i32 4
  %49 = load ptr, ptr %gsec_key37, align 8
  %vtable38 = load ptr, ptr %49, align 8
  %vfn39 = getelementptr inbounds ptr, ptr %vtable38, i64 3
  %50 = load ptr, ptr %vfn39, align 8
  %call40 = call { ptr, i64 } %50(ptr noundef nonnull align 8 dereferenceable(8) %49)
  %51 = getelementptr inbounds { ptr, i64 }, ptr %agg.tmp36, i32 0, i32 0
  %52 = extractvalue { ptr, i64 } %call40, 0
  store ptr %52, ptr %51, align 8
  %53 = getelementptr inbounds { ptr, i64 }, ptr %agg.tmp36, i32 0, i32 1
  %54 = extractvalue { ptr, i64 } %call40, 1
  store i64 %54, ptr %53, align 8
  %55 = load ptr, ptr %aes_gcm_crypter.addr, align 8
  %gsec_key43 = getelementptr inbounds %struct.gsec_aes_gcm_aead_crypter, ptr %55, i32 0, i32 4
  %56 = load ptr, ptr %gsec_key43, align 8
  %vtable44 = load ptr, ptr %56, align 8
  %vfn45 = getelementptr inbounds ptr, ptr %vtable44, i64 6
  %57 = load ptr, ptr %vfn45, align 8
  %call46 = call { ptr, i64 } %57(ptr noundef nonnull align 8 dereferenceable(8) %56)
  %58 = getelementptr inbounds { ptr, i64 }, ptr %ref.tmp42, i32 0, i32 0
  %59 = extractvalue { ptr, i64 } %call46, 0
  store ptr %59, ptr %58, align 8
  %60 = getelementptr inbounds { ptr, i64 }, ptr %ref.tmp42, i32 0, i32 1
  %61 = extractvalue { ptr, i64 } %call46, 1
  store i64 %61, ptr %60, align 8
  call void @_ZN4absl12lts_202308024SpanIKhEC2INS1_IhEEvS5_TnNSt9enable_ifIXsr6IsViewIT_EE5valueEiE4typeELi0EEERKS7_(ptr noundef nonnull align 8 dereferenceable(16) %agg.tmp41, ptr noundef nonnull align 8 dereferenceable(16) %ref.tmp42) #12
  %62 = getelementptr inbounds { ptr, i64 }, ptr %agg.tmp, i32 0, i32 0
  %63 = load ptr, ptr %62, align 8
  %64 = getelementptr inbounds { ptr, i64 }, ptr %agg.tmp, i32 0, i32 1
  %65 = load i64, ptr %64, align 8
  %66 = getelementptr inbounds { ptr, i64 }, ptr %agg.tmp36, i32 0, i32 0
  %67 = load ptr, ptr %66, align 8
  %68 = getelementptr inbounds { ptr, i64 }, ptr %agg.tmp36, i32 0, i32 1
  %69 = load i64, ptr %68, align 8
  %call47 = call noundef i32 @_ZL23aes_gcm_derive_aead_keyN4absl12lts_202308024SpanIhEEPhNS1_IKhEES5_(ptr %63, i64 %65, ptr noundef %call35, ptr %67, i64 %69, ptr noundef byval(%"class.absl::lts_20230802::Span") align 8 %agg.tmp41)
  %cmp48 = icmp ne i32 %call47, 0
  br i1 %cmp48, label %if.then49, label %if.end50

if.then49:                                        ; preds = %if.end
  %70 = load ptr, ptr %error_details.addr, align 8
  call void @_ZL21aes_gcm_format_errorsPKcPPc(ptr noundef @.str.21, ptr noundef %70)
  store i32 13, ptr %retval, align 4
  br label %return

if.end50:                                         ; preds = %if.end
  %71 = load ptr, ptr %aes_gcm_crypter.addr, align 8
  %ctx = getelementptr inbounds %struct.gsec_aes_gcm_aead_crypter, ptr %71, i32 0, i32 3
  %72 = load ptr, ptr %ctx, align 8
  %73 = load ptr, ptr %aes_gcm_crypter.addr, align 8
  %gsec_key52 = getelementptr inbounds %struct.gsec_aes_gcm_aead_crypter, ptr %73, i32 0, i32 4
  %74 = load ptr, ptr %gsec_key52, align 8
  %vtable53 = load ptr, ptr %74, align 8
  %vfn54 = getelementptr inbounds ptr, ptr %vtable53, i64 4
  %75 = load ptr, ptr %vfn54, align 8
  %call55 = call { ptr, i64 } %75(ptr noundef nonnull align 8 dereferenceable(8) %74)
  %76 = getelementptr inbounds { ptr, i64 }, ptr %ref.tmp51, i32 0, i32 0
  %77 = extractvalue { ptr, i64 } %call55, 0
  store ptr %77, ptr %76, align 8
  %78 = getelementptr inbounds { ptr, i64 }, ptr %ref.tmp51, i32 0, i32 1
  %79 = extractvalue { ptr, i64 } %call55, 1
  store i64 %79, ptr %78, align 8
  %call56 = call noundef ptr @_ZNK4absl12lts_202308024SpanIhE4dataEv(ptr noundef nonnull align 8 dereferenceable(16) %ref.tmp51) #12
  %call57 = call i32 @EVP_DecryptInit_ex(ptr noundef %72, ptr noundef null, ptr noundef null, ptr noundef %call56, ptr noundef null)
  %tobool = icmp ne i32 %call57, 0
  %lnot = xor i1 %tobool, true
  br i1 %lnot, label %if.then58, label %if.end59

if.then58:                                        ; preds = %if.end50
  %80 = load ptr, ptr %error_details.addr, align 8
  call void @_ZL21aes_gcm_format_errorsPKcPPc(ptr noundef @.str.22, ptr noundef %80)
  store i32 13, ptr %retval, align 4
  br label %return

if.end59:                                         ; preds = %if.end50
  store i32 0, ptr %retval, align 4
  br label %return

return:                                           ; preds = %if.end59, %if.then58, %if.then49, %if.then
  %81 = load i32, ptr %retval, align 4
  ret i32 %81
}