; Function Attrs: mustprogress uwtable
define internal fastcc noundef i32 @_ZL25aes_gcm_rekey_if_requiredP25gsec_aes_gcm_aead_crypterPKhPPc(ptr nocapture noundef readonly %aes_gcm_crypter, ptr nocapture noundef readonly %nonce, ptr noundef %error_details) unnamed_addr #0 {
entry:
  %gsec_key = getelementptr inbounds i8, ptr %aes_gcm_crypter, i64 32
  %0 = load ptr, ptr %gsec_key, align 8
  %vtable = load ptr, ptr %0, align 8
  %vfn = getelementptr inbounds i8, ptr %vtable, i64 16
  %1 = load ptr, ptr %vfn, align 8
  %call = tail call noundef zeroext i1 %1(ptr noundef nonnull align 8 dereferenceable(8) %0)
  br i1 %call, label %lor.rhs, label %return

lor.rhs:                                          ; preds = %entry
  %2 = load ptr, ptr %gsec_key, align 8
  %vtable2 = load ptr, ptr %2, align 8
  %vfn3 = getelementptr inbounds i8, ptr %vtable2, i64 48
  %3 = load ptr, ptr %vfn3, align 8
  %call4 = tail call { ptr, i64 } %3(ptr noundef nonnull align 8 dereferenceable(8) %2)
  %4 = extractvalue { ptr, i64 } %call4, 0
  %add.ptr = getelementptr inbounds i8, ptr %nonce, i64 2
  %5 = load ptr, ptr %gsec_key, align 8
  %vtable8 = load ptr, ptr %5, align 8
  %vfn9 = getelementptr inbounds i8, ptr %vtable8, i64 48
  %6 = load ptr, ptr %vfn9, align 8
  %call10 = tail call { ptr, i64 } %6(ptr noundef nonnull align 8 dereferenceable(8) %5)
  %7 = extractvalue { ptr, i64 } %call10, 1
  %bcmp = tail call i32 @bcmp(ptr %4, ptr nonnull %add.ptr, i64 %7)
  %cmp = icmp eq i32 %bcmp, 0
  br i1 %cmp, label %return, label %if.end

if.end:                                           ; preds = %lor.rhs
  %8 = load ptr, ptr %gsec_key, align 8
  %vtable15 = load ptr, ptr %8, align 8
  %vfn16 = getelementptr inbounds i8, ptr %vtable15, i64 48
  %9 = load ptr, ptr %vfn16, align 8
  %call17 = tail call { ptr, i64 } %9(ptr noundef nonnull align 8 dereferenceable(8) %8)
  %10 = extractvalue { ptr, i64 } %call17, 0
  %11 = load ptr, ptr %gsec_key, align 8
  %vtable22 = load ptr, ptr %11, align 8
  %vfn23 = getelementptr inbounds i8, ptr %vtable22, i64 48
  %12 = load ptr, ptr %vfn23, align 8
  %call24 = tail call { ptr, i64 } %12(ptr noundef nonnull align 8 dereferenceable(8) %11)
  %13 = extractvalue { ptr, i64 } %call24, 1
  tail call void @llvm.memcpy.p0.p0.i64(ptr align 1 %10, ptr nonnull align 1 %add.ptr, i64 %13, i1 false)
  %14 = load ptr, ptr %gsec_key, align 8
  %vtable27 = load ptr, ptr %14, align 8
  %vfn28 = getelementptr inbounds i8, ptr %vtable27, i64 32
  %15 = load ptr, ptr %vfn28, align 8
  %call29 = tail call { ptr, i64 } %15(ptr noundef nonnull align 8 dereferenceable(8) %14)
  %16 = extractvalue { ptr, i64 } %call29, 0
  %17 = extractvalue { ptr, i64 } %call29, 1
  %18 = load ptr, ptr %gsec_key, align 8
  %vtable32 = load ptr, ptr %18, align 8
  %vfn33 = getelementptr inbounds i8, ptr %vtable32, i64 56
  %19 = load ptr, ptr %vfn33, align 8
  %call34 = tail call { ptr, i64 } %19(ptr noundef nonnull align 8 dereferenceable(8) %18)
  %20 = extractvalue { ptr, i64 } %call34, 0
  %21 = load ptr, ptr %gsec_key, align 8
  %vtable38 = load ptr, ptr %21, align 8
  %vfn39 = getelementptr inbounds i8, ptr %vtable38, i64 24
  %22 = load ptr, ptr %vfn39, align 8
  %call40 = tail call { ptr, i64 } %22(ptr noundef nonnull align 8 dereferenceable(8) %21)
  %23 = extractvalue { ptr, i64 } %call40, 0
  %24 = extractvalue { ptr, i64 } %call40, 1
  %25 = load ptr, ptr %gsec_key, align 8
  %vtable44 = load ptr, ptr %25, align 8
  %vfn45 = getelementptr inbounds i8, ptr %vtable44, i64 48
  %26 = load ptr, ptr %vfn45, align 8
  %call46 = tail call { ptr, i64 } %26(ptr noundef nonnull align 8 dereferenceable(8) %25)
  %27 = extractvalue { ptr, i64 } %call46, 0
  %28 = extractvalue { ptr, i64 } %call46, 1
  %call47 = tail call fastcc noundef i32 @_ZL23aes_gcm_derive_aead_keyN4absl12lts_202308024SpanIhEEPhNS1_IKhEES5_(ptr %16, i64 %17, ptr noundef %20, ptr %23, i64 %24, ptr %27, i64 %28)
  %cmp48.not = icmp eq i32 %call47, 0
  br i1 %cmp48.not, label %if.end50, label %return.sink.split

if.end50:                                         ; preds = %if.end
  %ctx = getelementptr inbounds i8, ptr %aes_gcm_crypter, i64 24
  %29 = load ptr, ptr %ctx, align 8
  %30 = load ptr, ptr %gsec_key, align 8
  %vtable53 = load ptr, ptr %30, align 8
  %vfn54 = getelementptr inbounds i8, ptr %vtable53, i64 32
  %31 = load ptr, ptr %vfn54, align 8
  %call55 = tail call { ptr, i64 } %31(ptr noundef nonnull align 8 dereferenceable(8) %30)
  %32 = extractvalue { ptr, i64 } %call55, 0
  %call57 = tail call i32 @EVP_DecryptInit_ex(ptr noundef %29, ptr noundef null, ptr noundef null, ptr noundef %32, ptr noundef null)
  %tobool.not = icmp eq i32 %call57, 0
  br i1 %tobool.not, label %return.sink.split, label %return

return.sink.split:                                ; preds = %if.end50, %if.end
  %.str.22.sink = phi ptr [ @.str.21, %if.end ], [ @.str.22, %if.end50 ]
  tail call fastcc void @_ZL21aes_gcm_format_errorsPKcPPc(ptr noundef nonnull %.str.22.sink, ptr noundef %error_details)
  br label %return

return:                                           ; preds = %return.sink.split, %if.end50, %lor.rhs, %entry
  %retval.0 = phi i32 [ 0, %entry ], [ 0, %lor.rhs ], [ 0, %if.end50 ], [ 13, %return.sink.split ]
  ret i32 %retval.0
}